target datalayout = "e-m:e-p270:32:32-p271:32:32-p272:64:64-i64:64-i128:128-f80:128-n8:16:32:64-S128"
target triple = "x86_64-pc-linux-gnu"

%struct.obj_info = type { ptr, ptr, i64, ptr, i64, i64, %struct.dwarf_section, %struct.dwarf_section, %struct.dwarf_section, %struct.dwarf_section, %struct.dwarf_section, %struct.dwarf_section, %struct.dwarf_section, %struct.dwarf_section, %struct.dwarf_section, ptr }
%struct.dwarf_section = type { ptr, i64, i64 }
%struct.addr_header = type { ptr, i64, i8, i8 }

@.str.18 = private unnamed_addr constant [24 x i8] c"unknown address_size:%d\00", align 1

; Function Attrs: nounwind sspstrong uwtable
define internal zeroext i1 @addr_header_init(ptr noundef %0, ptr noundef %1, ptr noundef %2) #0 {
  %4 = alloca i1, align 1
  %5 = alloca ptr, align 8
  %6 = alloca ptr, align 8
  %7 = alloca ptr, align 8
  %8 = alloca ptr, align 8
  %9 = alloca i32, align 4
  store ptr %0, ptr %5, align 8, !tbaa !17
  store ptr %1, ptr %6, align 8, !tbaa !139
  store ptr %2, ptr %7, align 8, !tbaa !13
  call void @llvm.lifetime.start.p0(i64 8, ptr %8) #12
  %10 = load ptr, ptr %5, align 8, !tbaa !17
  %11 = getelementptr inbounds nuw %struct.obj_info, ptr %10, i32 0, i32 11
  %12 = getelementptr inbounds nuw %struct.dwarf_section, ptr %11, i32 0, i32 0
  %13 = load ptr, ptr %12, align 8, !tbaa !141
  store ptr %13, ptr %8, align 8, !tbaa !19
  %14 = load ptr, ptr %8, align 8, !tbaa !19
  %15 = load ptr, ptr %6, align 8, !tbaa !139
  %16 = getelementptr inbounds nuw %struct.addr_header, ptr %15, i32 0, i32 0
  store ptr %14, ptr %16, align 8, !tbaa !142
  %17 = load ptr, ptr %8, align 8, !tbaa !19
  %18 = icmp ne ptr %17, null
  br i1 %18, label %20, label %19

19:                                               ; preds = %3
  store i1 true, ptr %4, align 1
  store i32 1, ptr %9, align 4
  br label %72

20:                                               ; preds = %3
  %21 = load ptr, ptr %8, align 8, !tbaa !19
  %22 = load i32, ptr %21, align 4, !tbaa !7
  %23 = zext i32 %22 to i64
  %24 = load ptr, ptr %6, align 8, !tbaa !139
  %25 = getelementptr inbounds nuw %struct.addr_header, ptr %24, i32 0, i32 1
  store i64 %23, ptr %25, align 8, !tbaa !144
  %26 = load ptr, ptr %8, align 8, !tbaa !19
  %27 = getelementptr i8, ptr %26, i64 4
  store ptr %27, ptr %8, align 8, !tbaa !19
  %28 = load ptr, ptr %6, align 8, !tbaa !139
  %29 = getelementptr inbounds nuw %struct.addr_header, ptr %28, i32 0, i32 2
  store i8 4, ptr %29, align 8, !tbaa !145
  %30 = load ptr, ptr %6, align 8, !tbaa !139
  %31 = getelementptr inbounds nuw %struct.addr_header, ptr %30, i32 0, i32 1
  %32 = load i64, ptr %31, align 8, !tbaa !144
  %33 = icmp eq i64 %32, 4294967295
  br i1 %33, label %34, label %43

34:                                               ; preds = %20
  %35 = load ptr, ptr %8, align 8, !tbaa !19
  %36 = load i64, ptr %35, align 8, !tbaa !21
  %37 = load ptr, ptr %6, align 8, !tbaa !139
  %38 = getelementptr inbounds nuw %struct.addr_header, ptr %37, i32 0, i32 1
  store i64 %36, ptr %38, align 8, !tbaa !144
  %39 = load ptr, ptr %8, align 8, !tbaa !19
  %40 = getelementptr i8, ptr %39, i64 8
  store ptr %40, ptr %8, align 8, !tbaa !19
  %41 = load ptr, ptr %6, align 8, !tbaa !139
  %42 = getelementptr inbounds nuw %struct.addr_header, ptr %41, i32 0, i32 2
  store i8 8, ptr %42, align 8, !tbaa !145
  br label %43

43:                                               ; preds = %34, %20
  %44 = load ptr, ptr %8, align 8, !tbaa !19
  %45 = getelementptr i8, ptr %44, i64 2
  store ptr %45, ptr %8, align 8, !tbaa !19
  %46 = load ptr, ptr %8, align 8, !tbaa !19
  %47 = getelementptr i8, ptr %46, i32 1
  store ptr %47, ptr %8, align 8, !tbaa !19
  %48 = load i8, ptr %46, align 1, !tbaa !53
  %49 = load ptr, ptr %6, align 8, !tbaa !139
  %50 = getelementptr inbounds nuw %struct.addr_header, ptr %49, i32 0, i32 3
  store i8 %48, ptr %50, align 1, !tbaa !146
  %51 = load ptr, ptr %6, align 8, !tbaa !139
  %52 = getelementptr inbounds nuw %struct.addr_header, ptr %51, i32 0, i32 3
  %53 = load i8, ptr %52, align 1, !tbaa !146
  %54 = zext i8 %53 to i32
  %55 = icmp ne i32 %54, 4
  br i1 %55, label %56, label %69

56:                                               ; preds = %43
  %57 = load ptr, ptr %6, align 8, !tbaa !139
  %58 = getelementptr inbounds nuw %struct.addr_header, ptr %57, i32 0, i32 3
  %59 = load i8, ptr %58, align 1, !tbaa !146
  %60 = zext i8 %59 to i32
  %61 = icmp ne i32 %60, 8
  br i1 %61, label %62, label %69

62:                                               ; preds = %56
  %63 = load ptr, ptr %7, align 8, !tbaa !13
  %64 = load ptr, ptr %6, align 8, !tbaa !139
  %65 = getelementptr inbounds nuw %struct.addr_header, ptr %64, i32 0, i32 3
  %66 = load i8, ptr %65, align 1, !tbaa !146
  %67 = zext i8 %66 to i32
  %68 = call i32 (ptr, i32, ptr, ...) @__fprintf_chk(ptr noundef %63, i32 noundef 1, ptr noundef @.str.18, i32 noundef %67)
  store i1 false, ptr %4, align 1
  store i32 1, ptr %9, align 4
  br label %72

69:                                               ; preds = %56, %43
  %70 = load ptr, ptr %8, align 8, !tbaa !19
  %71 = getelementptr i8, ptr %70, i32 1
  store ptr %71, ptr %8, align 8, !tbaa !19
  store i1 true, ptr %4, align 1
  store i32 1, ptr %9, align 4
  br label %72

72:                                               ; preds = %69, %62, %19
  call void @llvm.lifetime.end.p0(i64 8, ptr %8) #12
  %73 = load i1, ptr %4, align 1
  ret i1 %73
}