; Function Attrs: nounwind sspstrong uwtable
define internal fastcc noundef zeroext i1 @addr_header_init(ptr %.168.val, ptr noundef nonnull writeonly captures(none) initializes((0, 8)) %0, ptr noundef %1) unnamed_addr #0 {
  store ptr %.168.val, ptr %0, align 8, !tbaa !116
  %.not = icmp eq ptr %.168.val, null
  br i1 %.not, label %21, label %3

3:                                                ; preds = %2
  %4 = load i32, ptr %.168.val, align 4, !tbaa !51
  %5 = zext i32 %4 to i64
  %6 = getelementptr inbounds nuw i8, ptr %0, i64 8
  store i64 %5, ptr %6, align 8, !tbaa !140
  %7 = getelementptr inbounds nuw i8, ptr %0, i64 16
  store i8 4, ptr %7, align 8, !tbaa !141
  %8 = icmp eq i32 %4, -1
  br i1 %8, label %9, label %12

9:                                                ; preds = %3
  %10 = getelementptr i8, ptr %.168.val, i64 4
  %11 = load i64, ptr %10, align 8, !tbaa !68
  store i64 %11, ptr %6, align 8, !tbaa !140
  store i8 8, ptr %7, align 8, !tbaa !141
  br label %12

12:                                               ; preds = %9, %3
  %13 = phi i64 [ 12, %9 ], [ 4, %3 ]
  %14 = getelementptr i8, ptr %.168.val, i64 %13
  %15 = getelementptr i8, ptr %14, i64 2
  %16 = load i8, ptr %15, align 1, !tbaa !12
  %17 = getelementptr inbounds nuw i8, ptr %0, i64 17
  store i8 %16, ptr %17, align 1, !tbaa !114
  switch i8 %16, label %18 [
    i8 4, label %21
    i8 8, label %21
  ]

18:                                               ; preds = %12
  %19 = zext i8 %16 to i32
  %20 = tail call i32 (ptr, i32, ptr, ...) @__fprintf_chk(ptr noundef %1, i32 noundef 1, ptr noundef nonnull @.str.18, i32 noundef %19) #16
  br label %21

21:                                               ; preds = %12, %12, %2, %18
  %.022 = phi i1 [ false, %18 ], [ true, %2 ], [ true, %12 ], [ true, %12 ]
  ret i1 %.022
}